; Function Attrs: mustprogress nofree norecurse nosync nounwind willreturn memory(readwrite, inaccessiblemem: none) uwtable
define dso_local noundef i64 @ts_typanalyze(ptr noundef readonly captures(none) %0) local_unnamed_addr #0 {
  %2 = getelementptr inbounds nuw i8, ptr %0, i64 32
  %3 = load i64, ptr %2, align 8
  %4 = inttoptr i64 %3 to ptr
  %5 = load i32, ptr %4, align 8
  %6 = icmp slt i32 %5, 0
  br i1 %6, label %7, label %9

7:                                                ; preds = %1
  %8 = load i32, ptr @default_statistics_target, align 4
  store i32 %8, ptr %4, align 8
  br label %9

9:                                                ; preds = %7, %1
  %10 = phi i32 [ %8, %7 ], [ %5, %1 ]
  %11 = getelementptr inbounds nuw i8, ptr %4, i64 40
  store ptr @compute_tsvector_stats, ptr %11, align 8
  %12 = mul i32 %10, 300
  %13 = getelementptr inbounds nuw i8, ptr %4, i64 48
  store i32 %12, ptr %13, align 8
  ret i64 1
}